; Function Attrs: nofree norecurse nosync nounwind memory(argmem: read) uwtable
define hidden i64 @_mi_commit_mask_committed_size(ptr noundef readonly captures(none) %0, i64 noundef %1) local_unnamed_addr #0 {
  br label %6

3:                                                ; preds = %.loopexit
  %4 = lshr i64 %1, 10
  %5 = mul i64 %.1, %4
  ret i64 %5

6:                                                ; preds = %2, %.loopexit
  %.01118 = phi i64 [ 0, %2 ], [ %13, %.loopexit ]
  %.01217 = phi i64 [ 0, %2 ], [ %.1, %.loopexit ]
  %7 = getelementptr inbounds nuw [16 x i64], ptr %0, i64 0, i64 %.01118
  %8 = load i64, ptr %7, align 8, !tbaa !3
  switch i64 %8, label %.lr.ph [
    i64 -1, label %9
    i64 0, label %.loopexit
  ]

9:                                                ; preds = %6
  %10 = add i64 %.01217, 64
  br label %.loopexit

.lr.ph:                                           ; preds = %6, %.lr.ph
  %.016 = phi i64 [ %12, %.lr.ph ], [ %8, %6 ]
  %.215 = phi i64 [ %spec.select, %.lr.ph ], [ %.01217, %6 ]
  %11 = and i64 %.016, 1
  %spec.select = add i64 %11, %.215
  %12 = lshr i64 %.016, 1
  %.not = icmp ult i64 %.016, 2
  br i1 %.not, label %.loopexit, label %.lr.ph, !llvm.loop !7

.loopexit:                                        ; preds = %.lr.ph, %6, %9
  %.1 = phi i64 [ %10, %9 ], [ %.01217, %6 ], [ %spec.select, %.lr.ph ]
  %13 = add nuw nsw i64 %.01118, 1
  %exitcond.not = icmp eq i64 %13, 16
  br i1 %exitcond.not, label %3, label %6, !llvm.loop !9
}